Certificate:
    Data:
        Version: 3 (0x2)
        Serial Number:
            4f:e0:18:c3:68:cc:77:95:52:3e:0a:fd:fc:77:dc:41
        Signature Algorithm: sha256WithRSAEncryption
        Issuer: CN=\xD0\xB5\xD1\x83test
        Validity
            Not Before: Oct 28 12:37:18 2024 GMT
            Not After : Jan 31 12:37:18 2027 GMT
        Subject: CN=client
        Subject Public Key Info:
            Public Key Algorithm: rsaEncryption
                Public-Key: (2048 bit)
                Modulus:
                    00:9e:d5:b8:af:d8:80:cb:45:47:61:32:85:ec:b2:
                    b4:db:89:df:71:d6:50:32:d4:4b:26:e4:26:4d:3b:
                    84:de:bf:a6:dc:f0:3a:aa:77:e5:4f:49:d2:a9:c8:
                    2a:5d:21:20:03:b2:6f:44:ec:eb:3b:21:ed:80:e3:
                    54:18:c1:0e:8d:94:5f:4f:bc:2a:1e:ed:a4:49:23:
                    b7:98:71:47:ae:28:8c:f8:96:e9:15:42:93:29:d8:
                    36:bf:7f:00:d5:03:5a:11:b6:44:20:b9:b7:79:f9:
                    a8:f2:f0:e6:fa:a8:58:4a:17:dc:ff:a8:87:cc:f5:
                    42:03:25:76:12:13:cb:1b:c8:ba:d3:0f:79:87:3e:
                    b5:2f:cc:ad:fb:5e:62:e2:98:fe:e4:97:e5:b8:c0:
                    fa:b7:68:cf:f5:1b:d2:18:59:b4:dd:20:35:ce:33:
                    e7:ab:fa:c4:a5:26:64:ae:3b:77:4a:18:4f:fa:d3:
                    b5:d2:66:20:95:38:d3:cd:f2:1d:8e:1f:56:53:a1:
                    50:7d:ff:31:73:bc:cf:17:37:6a:61:78:84:18:3c:
                    58:42:b2:73:96:cc:f5:61:46:4c:13:12:80:a6:d9:
                    0f:52:3a:7b:bf:1f:75:4d:2b:83:92:4f:20:02:28:
                    fa:14:e8:a1:ce:fb:e1:b6:7b:47:17:23:50:ea:7e:
                    1e:15
                Exponent: 65537 (0x10001)
        X509v3 extensions:
            X509v3 Basic Constraints: 
                CA:FALSE
            X509v3 Subject Key Identifier: 
                C4:06:BF:63:E1:05:25:0E:5A:80:88:AD:B8:49:D1:7F:C4:6A:CF:4B
            X509v3 Authority Key Identifier: 
                keyid:CA:E6:66:02:AA:C7:94:71:01:92:9C:EA:AF:8A:B4:3C:51:16:10:58
                DirName:/CN=\xD0\xB5\xD1\x83test
                serial:33:6E:5A:C7:62:38:6F:FE:1E:FD:CD:93:65:79:1C:11:F0:AD:01:B5
            X509v3 Extended Key Usage: 
                TLS Web Client Authentication
            X509v3 Key Usage: 
                Digital Signature
    Signature Algorithm: sha256WithRSAEncryption
    Signature Value:
        ae:7c:86:fc:44:6a:09:f3:6f:4b:89:e2:e4:30:49:11:1b:31:
        67:3d:d7:bb:72:f7:38:6d:eb:85:dc:98:b6:e6:ff:a2:fe:b1:
        54:b3:2f:fa:54:f6:0b:c6:bb:49:05:39:0b:d1:19:3b:4e:0e:
        1b:57:d5:0a:a6:47:fb:96:99:22:a8:59:ba:38:4e:c0:9a:01:
        cc:0b:a7:1d:e7:e4:79:5f:ef:3b:02:53:41:58:8e:a6:24:72:
        6f:43:75:c5:bd:19:51:95:cc:19:d2:32:a1:22:fc:c5:03:95:
        0b:82:57:05:4f:8a:2b:39:ec:65:55:cc:13:f4:d3:82:4b:95:
        a7:dd:12:8a:de:14:9d:d5:36:04:03:84:7e:df:4f:ba:10:6a:
        e9:dc:88:73:bc:54:ce:f1:41:cb:db:0e:ed:76:29:76:08:0b:
        70:57:46:60:f1:b4:08:2e:7d:fb:88:64:56:35:8f:9e:b2:1c:
        8d:d6:15:79:87:f9:73:a4:98:d2:58:1d:60:bf:21:0b:82:8e:
        ad:6b:20:9a:cd:61:42:5b:2e:3e:33:f6:90:5f:5b:0a:fe:1f:
        20:34:d2:26:2b:27:8c:32:df:c8:bd:f2:f5:d3:4d:08:00:31:
        32:7a:3a:9c:f5:6e:c9:90:87:4d:24:05:04:aa:4d:3b:ae:1c:
        30:26:ba:1e
-----BEGIN CERTIFICATE-----
MIIDTjCCAjagAwIBAgIQT+AYw2jMd5VSPgr9/HfcQTANBgkqhkiG9w0BAQsFADAT
MREwDwYDVQQDDAjQtdGDdGVzdDAeFw0yNDEwMjgxMjM3MThaFw0yNzAxMzExMjM3
MThaMBExDzANBgNVBAMMBmNsaWVudDCCASIwDQYJKoZIhvcNAQEBBQADggEPADCC
AQoCggEBAJ7VuK/YgMtFR2EyheyytNuJ33HWUDLUSybkJk07hN6/ptzwOqp35U9J
0qnIKl0hIAOyb0Ts6zsh7YDjVBjBDo2UX0+8Kh7tpEkjt5hxR64ojPiW6RVCkynY
Nr9/ANUDWhG2RCC5t3n5qPLw5vqoWEoX3P+oh8z1QgMldhITyxvIutMPeYc+tS/M
rfteYuKY/uSX5bjA+rdoz/Ub0hhZtN0gNc4z56v6xKUmZK47d0oYT/rTtdJmIJU4
083yHY4fVlOhUH3/MXO8zxc3amF4hBg8WEKyc5bM9WFGTBMSgKbZD1I6e78fdU0r
g5JPIAIo+hTooc774bZ7RxcjUOp+HhUCAwEAAaOBnzCBnDAJBgNVHRMEAjAAMB0G
A1UdDgQWBBTEBr9j4QUlDlqAiK24SdF/xGrPSzBOBgNVHSMERzBFgBTK5mYCqseU
cQGSnOqvirQ8URYQWKEXpBUwEzERMA8GA1UEAwwI0LXRg3Rlc3SCFDNuWsdiOG/+
Hv3Nk2V5HBHwrQG1MBMGA1UdJQQMMAoGCCsGAQUFBwMCMAsGA1UdDwQEAwIHgDAN
BgkqhkiG9w0BAQsFAAOCAQEArnyG/ERqCfNvS4ni5DBJERsxZz3Xu3L3OG3rhdyY
tub/ov6xVLMv+lT2C8a7SQU5C9EZO04OG1fVCqZH+5aZIqhZujhOwJoBzAunHefk
eV/vOwJTQViOpiRyb0N1xb0ZUZXMGdIyoSL8xQOVC4JXBU+KKznsZVXME/TTgkuV
p90Sit4UndU2BAOEft9PuhBq6dyIc7xUzvFBy9sO7XYpdggLcFdGYPG0CC59+4hk
VjWPnrIcjdYVeYf5c6SY0lgdYL8hC4KOrWsgms1hQlsuPjP2kF9bCv4fIDTSJisn
jDLfyL3y9dNNCAAxMno6nPVuyZCHTSQFBKpNO64cMCa6Hg==
-----END CERTIFICATE-----
